target datalayout = "e-m:e-p270:32:32-p271:32:32-p272:64:64-i64:64-i128:128-f80:128-n8:16:32:64-S128"
target triple = "x86_64-pc-linux-gnu"

; Function Attrs: mustprogress uwtable
define internal void @_ZL20resolveBaseDirectionPKDsjPhS1_(ptr noundef %0, i32 noundef %1, ptr noundef %2, ptr noundef %3) #0 {
  %5 = alloca ptr, align 8
  %6 = alloca i32, align 4
  %7 = alloca ptr, align 8
  %8 = alloca ptr, align 8
  %9 = alloca i8, align 1
  store ptr %0, ptr %5, align 8, !tbaa !18
  store i32 %1, ptr %6, align 4, !tbaa !19
  store ptr %2, ptr %7, align 8, !tbaa !37
  store ptr %3, ptr %8, align 8, !tbaa !37
  %10 = load ptr, ptr %7, align 8, !tbaa !37
  %11 = load i8, ptr %10, align 1, !tbaa !20
  %12 = zext i8 %11 to i32
  switch i32 %12, label %32 [
    i32 254, label %13
    i32 255, label %13
  ]

13:                                               ; preds = %4, %4
  call void @llvm.lifetime.start.p0(i64 1, ptr %9) #7
  %14 = load ptr, ptr %5, align 8, !tbaa !18
  %15 = load i32, ptr %6, align 4, !tbaa !19
  %16 = call i32 @ubidi_getBaseDirection_77(ptr noundef %14, i32 noundef %15)
  %17 = trunc i32 %16 to i8
  store i8 %17, ptr %9, align 1, !tbaa !20
  %18 = load i8, ptr %9, align 1, !tbaa !20
  %19 = zext i8 %18 to i32
  %20 = icmp ne i32 %19, 3
  br i1 %20, label %21, label %23

21:                                               ; preds = %13
  %22 = load i8, ptr %9, align 1, !tbaa !20
  br label %29

23:                                               ; preds = %13
  %24 = load ptr, ptr %7, align 8, !tbaa !37
  %25 = load i8, ptr %24, align 1, !tbaa !20
  %26 = zext i8 %25 to i32
  %27 = icmp eq i32 %26, 255
  %28 = select i1 %27, i8 1, i8 0
  br label %29

29:                                               ; preds = %23, %21
  %30 = phi i8 [ %22, %21 ], [ %28, %23 ]
  %31 = load ptr, ptr %7, align 8, !tbaa !37
  store i8 %30, ptr %31, align 1, !tbaa !20
  call void @llvm.lifetime.end.p0(i64 1, ptr %9) #7
  br label %38

32:                                               ; preds = %4
  %33 = load ptr, ptr %7, align 8, !tbaa !37
  %34 = load i8, ptr %33, align 1, !tbaa !20
  %35 = zext i8 %34 to i32
  %36 = and i32 %35, 1
  %37 = trunc i32 %36 to i8
  store i8 %37, ptr %33, align 1, !tbaa !20
  br label %38

38:                                               ; preds = %32, %29
  %39 = load ptr, ptr %8, align 8, !tbaa !37
  %40 = load i8, ptr %39, align 1, !tbaa !20
  %41 = zext i8 %40 to i32
  switch i32 %41, label %46 [
    i32 254, label %42
    i32 255, label %42
  ]

42:                                               ; preds = %38, %38
  %43 = load ptr, ptr %7, align 8, !tbaa !37
  %44 = load i8, ptr %43, align 1, !tbaa !20
  %45 = load ptr, ptr %8, align 8, !tbaa !37
  store i8 %44, ptr %45, align 1, !tbaa !20
  br label %52

46:                                               ; preds = %38
  %47 = load ptr, ptr %8, align 8, !tbaa !37
  %48 = load i8, ptr %47, align 1, !tbaa !20
  %49 = zext i8 %48 to i32
  %50 = and i32 %49, 1
  %51 = trunc i32 %50 to i8
  store i8 %51, ptr %47, align 1, !tbaa !20
  br label %52

52:                                               ; preds = %46, %42
  ret void
}