; Function Attrs: mustprogress uwtable
define internal fastcc void @_ZL20resolveBaseDirectionPKDsjPhS1_(ptr noundef nonnull %0, i32 noundef %1, ptr noundef nonnull captures(none) %2, ptr noundef nonnull captures(none) %3) unnamed_addr #0 {
  %5 = load i8, ptr %2, align 1, !tbaa !15
  %switch = icmp ugt i8 %5, -3
  br i1 %switch, label %6, label %15

6:                                                ; preds = %4
  %7 = tail call i32 @ubidi_getBaseDirection_77(ptr noundef nonnull %0, i32 noundef %1)
  %8 = and i32 %7, 255
  %.not = icmp eq i32 %8, 3
  br i1 %.not, label %11, label %9

9:                                                ; preds = %6
  %10 = trunc i32 %7 to i8
  br label %17

11:                                               ; preds = %6
  %12 = load i8, ptr %2, align 1, !tbaa !15
  %13 = icmp eq i8 %12, -1
  %14 = zext i1 %13 to i8
  br label %17

15:                                               ; preds = %4
  %16 = and i8 %5, 1
  br label %17

17:                                               ; preds = %9, %11, %15
  %storemerge = phi i8 [ %16, %15 ], [ %10, %9 ], [ %14, %11 ]
  store i8 %storemerge, ptr %2, align 1, !tbaa !15
  %18 = load i8, ptr %3, align 1, !tbaa !15
  %switch13 = icmp ugt i8 %18, -3
  %19 = and i8 %18, 1
  %spec.select = select i1 %switch13, i8 %storemerge, i8 %19
  store i8 %spec.select, ptr %3, align 1, !tbaa !15
  ret void
}